; Function Attrs: mustprogress uwtable
define hidden void @_ZN5zxing6Result19enlargeResultPointsEi(ptr noundef nonnull readonly align 8 captures(none) dereferenceable(228) %0, i32 noundef %1) local_unnamed_addr #0 align 2 personality ptr @__gxx_personality_v0 {
  %3 = getelementptr inbounds nuw i8, ptr %0, i64 64
  %4 = load ptr, ptr %3, align 8, !tbaa !17
  %5 = getelementptr inbounds nuw i8, ptr %4, i64 16
  %6 = getelementptr inbounds nuw i8, ptr %4, i64 24
  %7 = load ptr, ptr %6, align 8, !tbaa !34
  %8 = load ptr, ptr %5, align 8, !tbaa !37
  %9 = ptrtoint ptr %7 to i64
  %10 = ptrtoint ptr %8 to i64
  %11 = sub i64 %9, %10
  %12 = lshr exact i64 %11, 3
  %13 = trunc i64 %12 to i32
  %14 = icmp sgt i32 %13, 0
  br i1 %14, label %.lr.ph, label %._crit_edge

.lr.ph:                                           ; preds = %2
  %15 = sitofp i32 %1 to float
  br label %16

._crit_edge:                                      ; preds = %_ZN5zxing3RefINS_11ResultPointEED2Ev.exit, %2
  ret void

16:                                               ; preds = %.lr.ph, %_ZN5zxing3RefINS_11ResultPointEED2Ev.exit
  %indvars.iv = phi i64 [ 0, %.lr.ph ], [ %indvars.iv.next, %_ZN5zxing3RefINS_11ResultPointEED2Ev.exit ]
  %17 = phi ptr [ %5, %.lr.ph ], [ %66, %_ZN5zxing3RefINS_11ResultPointEED2Ev.exit ]
  %18 = tail call noalias noundef nonnull dereferenceable(24) ptr @_Znwm(i64 noundef 24) #12
  %19 = load ptr, ptr %17, align 8, !tbaa !37
  %20 = getelementptr inbounds nuw %"class.zxing::Ref.4", ptr %19, i64 %indvars.iv
  %21 = load ptr, ptr %20, align 8, !tbaa !38
  %22 = load ptr, ptr %21, align 8, !tbaa !8
  %23 = getelementptr inbounds nuw i8, ptr %22, i64 16
  %24 = load ptr, ptr %23, align 8
  %25 = invoke noundef float %24(ptr noundef nonnull align 8 dereferenceable(20) %21)
          to label %26 unwind label %75

26:                                               ; preds = %16
  %27 = load ptr, ptr %3, align 8, !tbaa !17
  %28 = getelementptr inbounds nuw i8, ptr %27, i64 16
  %29 = load ptr, ptr %28, align 8, !tbaa !37
  %30 = getelementptr inbounds nuw %"class.zxing::Ref.4", ptr %29, i64 %indvars.iv
  %31 = load ptr, ptr %30, align 8, !tbaa !38
  %32 = load ptr, ptr %31, align 8, !tbaa !8
  %33 = getelementptr inbounds nuw i8, ptr %32, i64 24
  %34 = load ptr, ptr %33, align 8
  %35 = invoke noundef float %34(ptr noundef nonnull align 8 dereferenceable(20) %31)
          to label %36 unwind label %75

36:                                               ; preds = %26
  %37 = fmul float %25, %15
  %38 = fmul float %35, %15
  invoke void @_ZN5zxing11ResultPointC1Eff(ptr noundef nonnull align 8 dereferenceable(20) %18, float noundef %37, float noundef %38)
          to label %39 unwind label %75

39:                                               ; preds = %36
  %40 = getelementptr inbounds nuw i8, ptr %18, i64 8
  %41 = load i32, ptr %40, align 8, !tbaa !3
  %42 = load ptr, ptr %3, align 8, !tbaa !17
  %43 = getelementptr inbounds nuw i8, ptr %42, i64 16
  %44 = load ptr, ptr %43, align 8, !tbaa !37
  %45 = getelementptr inbounds nuw %"class.zxing::Ref.4", ptr %44, i64 %indvars.iv
  %46 = add i32 %41, 2
  store i32 %46, ptr %40, align 8, !tbaa !3
  %47 = load ptr, ptr %45, align 8, !tbaa !38
  %.not5.i.i = icmp eq ptr %47, null
  br i1 %.not5.i.i, label %57, label %48

48:                                               ; preds = %39
  %49 = getelementptr inbounds nuw i8, ptr %47, i64 8
  %50 = load i32, ptr %49, align 8, !tbaa !3
  %51 = add i32 %50, -1
  store i32 %51, ptr %49, align 8, !tbaa !3
  %52 = icmp eq i32 %51, 0
  br i1 %52, label %53, label %57

53:                                               ; preds = %48
  store i32 -559026175, ptr %49, align 8, !tbaa !3
  %54 = load ptr, ptr %47, align 8, !tbaa !8
  %55 = getelementptr inbounds nuw i8, ptr %54, i64 8
  %56 = load ptr, ptr %55, align 8
  tail call void %56(ptr noundef nonnull align 8 dereferenceable(12) %47) #11
  br label %57

57:                                               ; preds = %53, %48, %39
  store ptr %18, ptr %45, align 8, !tbaa !38
  %58 = load i32, ptr %40, align 8, !tbaa !3
  %59 = add i32 %58, -1
  store i32 %59, ptr %40, align 8, !tbaa !3
  %60 = icmp eq i32 %59, 0
  br i1 %60, label %61, label %_ZN5zxing3RefINS_11ResultPointEED2Ev.exit

61:                                               ; preds = %57
  store i32 -559026175, ptr %40, align 8, !tbaa !3
  %62 = load ptr, ptr %18, align 8, !tbaa !8
  %63 = getelementptr inbounds nuw i8, ptr %62, i64 8
  %64 = load ptr, ptr %63, align 8
  tail call void %64(ptr noundef nonnull align 8 dereferenceable(12) %18) #11
  br label %_ZN5zxing3RefINS_11ResultPointEED2Ev.exit

_ZN5zxing3RefINS_11ResultPointEED2Ev.exit:        ; preds = %57, %61
  %indvars.iv.next = add nuw nsw i64 %indvars.iv, 1
  %65 = load ptr, ptr %3, align 8, !tbaa !17
  %66 = getelementptr inbounds nuw i8, ptr %65, i64 16
  %67 = getelementptr inbounds nuw i8, ptr %65, i64 24
  %68 = load ptr, ptr %67, align 8, !tbaa !34
  %69 = load ptr, ptr %66, align 8, !tbaa !37
  %70 = ptrtoint ptr %68 to i64
  %71 = ptrtoint ptr %69 to i64
  %72 = sub i64 %70, %71
  %sext = shl i64 %72, 29
  %73 = ashr i64 %sext, 32
  %74 = icmp slt i64 %indvars.iv.next, %73
  br i1 %74, label %16, label %._crit_edge, !llvm.loop !41

75:                                               ; preds = %36, %26, %16
  %76 = landingpad { ptr, i32 }
          cleanup
  tail call void @_ZdlPv(ptr noundef nonnull %18) #10
  resume { ptr, i32 } %76
}